; Function Attrs: null_pointer_is_valid sspstrong uwtable
define hidden i32 @mapi_dissect_struct_SyncImportDeletes_req(ptr noundef %0, i32 noundef %1, ptr noundef %2, ptr noundef %3, ptr noundef %4, ptr noundef %5, i32 noundef %6, i32 %7) local_unnamed_addr #0 {
  %9 = getelementptr inbounds nuw i8, ptr %4, i64 26
  %10 = load i8, ptr %9, align 2, !range !9, !noundef !10
  store i8 1, ptr %9, align 2
  %.not = icmp eq ptr %3, null
  br i1 %.not, label %15, label %11

11:                                               ; preds = %8
  %12 = tail call ptr @proto_tree_add_item(ptr noundef nonnull %3, i32 noundef %6, ptr noundef %0, i32 noundef %1, i32 noundef -1, i32 noundef 0)
  %13 = load i32, ptr @ett_mapi_SyncImportDeletes_req, align 4
  %14 = tail call ptr @proto_item_add_subtree(ptr noundef %12, i32 noundef %13)
  br label %15

15:                                               ; preds = %11, %8
  %.038 = phi ptr [ %14, %11 ], [ null, %8 ]
  %.0 = phi ptr [ %12, %11 ], [ null, %8 ]
  %16 = load i32, ptr @hf_mapi_LogonId, align 4
  %17 = tail call i32 @PIDL_dissect_uint8(ptr noundef %0, i32 noundef %1, ptr noundef %2, ptr noundef %.038, ptr noundef %4, ptr noundef %5, i32 noundef %16, i32 noundef 0)
  %18 = load i32, ptr @hf_mapi_InputHandleIndex, align 4
  %19 = tail call i32 @PIDL_dissect_uint8(ptr noundef %0, i32 noundef %17, ptr noundef %2, ptr noundef %.038, ptr noundef %4, ptr noundef %5, i32 noundef %18, i32 noundef 0)
  %20 = load i32, ptr @hf_mapi_SyncImportDeletes_req_IsHierarchy, align 4
  %21 = tail call i32 @PIDL_dissect_uint8(ptr noundef %0, i32 noundef %19, ptr noundef %2, ptr noundef %.038, ptr noundef %4, ptr noundef %5, i32 noundef %20, i32 noundef 0)
  %22 = load i32, ptr @hf_mapi_SyncImportDeletes_req_PropertyValues, align 4
  %23 = load i8, ptr %9, align 2, !range !9, !noundef !10
  store i8 1, ptr %9, align 2
  %.not.i.i = icmp eq ptr %.038, null
  br i1 %.not.i.i, label %mapi_dissect_element_SyncImportDeletes_req_PropertyValues.exit, label %24

24:                                               ; preds = %15
  %25 = tail call ptr @proto_tree_add_item(ptr noundef nonnull %.038, i32 noundef %22, ptr noundef %0, i32 noundef %21, i32 noundef -1, i32 noundef 0)
  %26 = load i32, ptr @ett_mapi_mapi_SPropValue_array, align 4
  %27 = tail call ptr @proto_item_add_subtree(ptr noundef %25, i32 noundef %26)
  br label %mapi_dissect_element_SyncImportDeletes_req_PropertyValues.exit

mapi_dissect_element_SyncImportDeletes_req_PropertyValues.exit: ; preds = %15, %24
  %.026.i.i = phi ptr [ %27, %24 ], [ null, %15 ]
  %.0.i.i = phi ptr [ %25, %24 ], [ null, %15 ]
  %28 = load i32, ptr @hf_mapi_mapi_SPropValue_array_cValues, align 4
  %29 = tail call i32 @PIDL_dissect_uint16(ptr noundef %0, i32 noundef %21, ptr noundef %2, ptr noundef %.026.i.i, ptr noundef %4, ptr noundef %5, i32 noundef %28, i32 noundef 0)
  %30 = tail call i32 @dissect_ndr_ucarray(ptr noundef %0, i32 noundef %29, ptr noundef %2, ptr noundef %.026.i.i, ptr noundef %4, ptr noundef %5, ptr noundef nonnull @mapi_dissect_element_SPropValue_array_lpProps_)
  %31 = sub i32 %30, %21
  tail call void @proto_item_set_len(ptr noundef %.0.i.i, i32 noundef %31)
  store i8 %23, ptr %9, align 2
  %32 = sub i32 %30, %1
  tail call void @proto_item_set_len(ptr noundef %.0, i32 noundef %32)
  store i8 %10, ptr %9, align 2
  ret i32 %30
}